ARM GAS  /tmp/ccBvEo45.s 			page 1


   1              		.syntax unified
   2              		.cpu cortex-m4
   3              		.eabi_attribute 27, 1
   4              		.eabi_attribute 28, 1
   5              		.fpu fpv4-sp-d16
   6              		.eabi_attribute 20, 1
   7              		.eabi_attribute 21, 1
   8              		.eabi_attribute 23, 3
   9              		.eabi_attribute 24, 1
  10              		.eabi_attribute 25, 1
  11              		.eabi_attribute 26, 1
  12              		.eabi_attribute 30, 1
  13              		.eabi_attribute 34, 1
  14              		.eabi_attribute 18, 4
  15              		.thumb
  16              		.file	"assert.c"
  17              		.text
  18              	.Ltext0:
  19              		.cfi_sections	.debug_frame
  20              		.global	__aeabi_f2d
  21              		.global	__aeabi_ddiv
  22              		.global	__aeabi_dadd
  23              		.global	__aeabi_dmul
  24              		.section	.text.updatePos,"ax",%progbits
  25              		.align	2
  26              		.global	updatePos
  27              		.thumb
  28              		.thumb_func
  30              	updatePos:
  31              	.LFB123:
  32              		.file 1 "Src/assert.c"
   1:Src/assert.c  **** #include "assert.h"
   2:Src/assert.c  **** 
   3:Src/assert.c  **** #define Kp_Droite 10
   4:Src/assert.c  **** #define Ki_Droite 0
   5:Src/assert.c  **** #define Kd_Droite 0
   6:Src/assert.c  **** 
   7:Src/assert.c  **** 
   8:Src/assert.c  **** #define Kp_Gauche 10
   9:Src/assert.c  **** #define Ki_Gauche 0
  10:Src/assert.c  **** #define Kd_Gauche 0
  11:Src/assert.c  **** 
  12:Src/assert.c  **** #define Kp_Angle 1000
  13:Src/assert.c  **** 
  14:Src/assert.c  **** char consignes[] = {'M', 'A', 'M',  'A', 'T',   'M', 'E'};
  15:Src/assert.c  **** double val1[] = {    200, 1, 200, -1, 2000,  200, 0 };
  16:Src/assert.c  **** double val2[] = {    0,   0,   0 ,   0,   0,     0,   0 };
  17:Src/assert.c  **** 
  18:Src/assert.c  **** int endOfMvt = 0;
  19:Src/assert.c  **** 
  20:Src/assert.c  **** 
  21:Src/assert.c  **** void updatePos(int tickRight, int tickGauche, double* positionX, double* positionY, double* angle)
  22:Src/assert.c  **** { 
  33              		.loc 1 22 0
  34              		.cfi_startproc
  35              		@ args = 4, pretend = 0, frame = 0
  36              		@ frame_needed = 0, uses_anonymous_args = 0
ARM GAS  /tmp/ccBvEo45.s 			page 2


  37              	.LVL0:
  38 0000 2DE9F047 		push	{r4, r5, r6, r7, r8, r9, r10, lr}
  39              	.LCFI0:
  40              		.cfi_def_cfa_offset 32
  41              		.cfi_offset 4, -32
  42              		.cfi_offset 5, -28
  43              		.cfi_offset 6, -24
  44              		.cfi_offset 7, -20
  45              		.cfi_offset 8, -16
  46              		.cfi_offset 9, -12
  47              		.cfi_offset 10, -8
  48              		.cfi_offset 14, -4
  49 0004 2DED028B 		fstmfdd	sp!, {d8}
  50              	.LCFI1:
  51              		.cfi_def_cfa_offset 40
  52              		.cfi_offset 80, -40
  53              		.cfi_offset 81, -36
  54 0008 8046     		mov	r8, r0
  55 000a 8A46     		mov	r10, r1
  56 000c 1546     		mov	r5, r2
  57 000e 1C46     		mov	r4, r3
  58 0010 DDF82890 		ldr	r9, [sp, #40]
  23:Src/assert.c  ****   // instant angle and distance
  24:Src/assert.c  ****   double dDist = (tickRight + tickGauche) / 2.0f;
  59              		.loc 1 24 0
  60 0014 4318     		adds	r3, r0, r1
  61              	.LVL1:
  62 0016 07EE903A 		fmsr	s15, r3	@ int
  63 001a F8EEE77A 		fsitos	s15, s15
  64 001e B6EE008A 		fconsts	s16, #96
  65 0022 67EE887A 		fmuls	s15, s15, s16
  66 0026 17EE900A 		fmrs	r0, s15
  67              	.LVL2:
  68 002a FFF7FEFF 		bl	__aeabi_f2d
  69              	.LVL3:
  70 002e 0646     		mov	r6, r0
  71 0030 0F46     		mov	r7, r1
  72              	.LVL4:
  25:Src/assert.c  ****   double dTheta = (tickRight - tickGauche) / 2.0f;
  73              		.loc 1 25 0
  74 0032 CAEB0808 		rsb	r8, r10, r8
  75              	.LVL5:
  76 0036 07EE908A 		fmsr	s15, r8	@ int
  77 003a F8EEE77A 		fsitos	s15, s15
  78 003e 67EE887A 		fmuls	s15, s15, s16
  79 0042 17EE900A 		fmrs	r0, s15
  80 0046 FFF7FEFF 		bl	__aeabi_f2d
  81              	.LVL6:
  26:Src/assert.c  **** 
  27:Src/assert.c  ****   // new angle
  28:Src/assert.c  ****   *angle += dTheta / ((AXISLENGTH*TICKSPERMM)/2);
  82              		.loc 1 28 0
  83 004a 24A3     		adr	r3, .L3+4
  84 004c D3E90023 		ldrd	r2, [r3]
  85 0050 FFF7FEFF 		bl	__aeabi_ddiv
  86              	.LVL7:
  87 0054 D9E90023 		ldrd	r2, [r9]
ARM GAS  /tmp/ccBvEo45.s 			page 3


  88 0058 FFF7FEFF 		bl	__aeabi_dadd
  89              	.LVL8:
  90 005c 41EC180B 		fmdrr	d8, r0, r1
  91 0060 C9E90001 		strd	r0, [r9]
  29:Src/assert.c  **** 
  30:Src/assert.c  ****   // New X Y
  31:Src/assert.c  ****   double dX = dDist * cos(*angle);
  92              		.loc 1 31 0
  93 0064 41EC100B 		fmdrr	d0, r0, r1
  94 0068 FFF7FEFF 		bl	cos
  95              	.LVL9:
  96 006c 51EC100B 		fmrrd	r0, r1, d0
  97 0070 3246     		mov	r2, r6
  98 0072 3B46     		mov	r3, r7
  99 0074 FFF7FEFF 		bl	__aeabi_dmul
 100              	.LVL10:
 101 0078 8046     		mov	r8, r0
 102 007a 8946     		mov	r9, r1
 103              	.LVL11:
  32:Src/assert.c  ****   double dY = dDist * sin(*angle);
 104              		.loc 1 32 0
 105 007c B0EE480A 		fcpys	s0, s16
 106 0080 F0EE680A 		fcpys	s1, s17
 107 0084 FFF7FEFF 		bl	sin
 108              	.LVL12:
 109 0088 51EC100B 		fmrrd	r0, r1, d0
 110 008c 3246     		mov	r2, r6
 111 008e 3B46     		mov	r3, r7
 112 0090 FFF7FEFF 		bl	__aeabi_dmul
 113              	.LVL13:
 114 0094 0646     		mov	r6, r0
 115              	.LVL14:
 116 0096 0F46     		mov	r7, r1
 117              	.LVL15:
  33:Src/assert.c  ****   *positionX += dX / TICKSPERMM;
 118              		.loc 1 33 0
 119 0098 4046     		mov	r0, r8
 120 009a 4946     		mov	r1, r9
 121 009c 0022     		movs	r2, #0
 122 009e 0E4B     		ldr	r3, .L3
 123 00a0 FFF7FEFF 		bl	__aeabi_ddiv
 124              	.LVL16:
 125 00a4 0246     		mov	r2, r0
 126 00a6 0B46     		mov	r3, r1
 127 00a8 D5E90001 		ldrd	r0, [r5]
 128 00ac FFF7FEFF 		bl	__aeabi_dadd
 129              	.LVL17:
 130 00b0 C5E90001 		strd	r0, [r5]
  34:Src/assert.c  ****   *positionY += dY / TICKSPERMM;
 131              		.loc 1 34 0
 132 00b4 3046     		mov	r0, r6
 133 00b6 3946     		mov	r1, r7
 134 00b8 0022     		movs	r2, #0
 135 00ba 074B     		ldr	r3, .L3
 136 00bc FFF7FEFF 		bl	__aeabi_ddiv
 137              	.LVL18:
 138 00c0 0246     		mov	r2, r0
ARM GAS  /tmp/ccBvEo45.s 			page 4


 139 00c2 0B46     		mov	r3, r1
 140 00c4 D4E90001 		ldrd	r0, [r4]
 141 00c8 FFF7FEFF 		bl	__aeabi_dadd
 142              	.LVL19:
 143 00cc C4E90001 		strd	r0, [r4]
  35:Src/assert.c  **** }
 144              		.loc 1 35 0
 145 00d0 BDEC028B 		fldmfdd	sp!, {d8}
 146              	.LCFI2:
 147              		.cfi_restore 80
 148              		.cfi_restore 81
 149              		.cfi_def_cfa_offset 32
 150 00d4 BDE8F087 		pop	{r4, r5, r6, r7, r8, r9, r10, pc}
 151              	.LVL20:
 152              	.L4:
 153              		.align	3
 154              	.L3:
 155 00d8 00003440 		.word	1077149696
 156 00dc 00000000 		.word	0
 157 00e0 00C89940 		.word	1083820032
 158              		.cfi_endproc
 159              	.LFE123:
 161              		.global	__aeabi_dcmpgt
 162              		.global	__aeabi_dcmplt
 163              		.section	.text.turn,"ax",%progbits
 164              		.align	2
 165              		.global	turn
 166              		.thumb
 167              		.thumb_func
 169              	turn:
 170              	.LFB125:
  36:Src/assert.c  **** 
  37:Src/assert.c  **** 
  38:Src/assert.c  **** 
  39:Src/assert.c  **** void stateMachine(int* consigneDroit, int* consigneGauche, double positionX, double positionY, doub
  40:Src/assert.c  **** {
  41:Src/assert.c  ****     static int state = 0;
  42:Src/assert.c  ****     
  43:Src/assert.c  ****     if (endOfMvt == 1)
  44:Src/assert.c  ****     {
  45:Src/assert.c  ****         endOfMvt = 0;
  46:Src/assert.c  ****         state += 1;
  47:Src/assert.c  ****         HAL_UART_Transmit(&huart2, "Fin de l'action\n", sizeof("Fin de l'action\n"), HAL_MAX_DELAY)
  48:Src/assert.c  ****     }
  49:Src/assert.c  ****     
  50:Src/assert.c  ****     switch(consignes[state])
  51:Src/assert.c  ****     {
  52:Src/assert.c  ****       case 'M':
  53:Src/assert.c  ****         move(consigneDroit, consigneGauche, positionX, positionY, angle, val1[state], val2[state], 
  54:Src/assert.c  ****         //char buffer[50] = "";
  55:Src/assert.c  **** 		//sprintf(buffer, " move %d / %d blbl\n",(int)val1[state], (int)val2[state]);
  56:Src/assert.c  **** 		//HAL_UART_Transmit(&huart2, buffer, sizeof(buffer), HAL_MAX_DELAY);
  57:Src/assert.c  ****         break;
  58:Src/assert.c  ****         
  59:Src/assert.c  ****       case 'A':
  60:Src/assert.c  **** 		turn(consigneDroit, consigneGauche, positionX, positionY, angle, val1[state], val2[state], tim4, 
  61:Src/assert.c  **** 		break;
ARM GAS  /tmp/ccBvEo45.s 			page 5


  62:Src/assert.c  ****         
  63:Src/assert.c  ****       case 'T':
  64:Src/assert.c  ****         HAL_UART_Transmit(&huart2, "Let's wait !\n", sizeof("Let's wait !\n"), HAL_MAX_DELAY);
  65:Src/assert.c  ****         HAL_Delay(val1[state]);
  66:Src/assert.c  ****         endOfMvt = 1;
  67:Src/assert.c  **** 
  68:Src/assert.c  ****       case 'E':  //end of the match
  69:Src/assert.c  ****         HAL_UART_Transmit(&huart2, "Fin de match\n", sizeof("Fin de match\n"), HAL_MAX_DELAY);
  70:Src/assert.c  ****         while(1){}
  71:Src/assert.c  ****         break;
  72:Src/assert.c  **** }
  73:Src/assert.c  **** }
  74:Src/assert.c  **** 
  75:Src/assert.c  **** 
  76:Src/assert.c  **** void turn(int* consigneDroit, int* consigneGauche, double positionX, double positionY, double angle
  77:Src/assert.c  **** {
 171              		.loc 1 77 0
 172              		.cfi_startproc
 173              		@ args = 64, pretend = 0, frame = 0
 174              		@ frame_needed = 0, uses_anonymous_args = 0
 175              	.LVL21:
 176 0000 2DE9F843 		push	{r3, r4, r5, r6, r7, r8, r9, lr}
 177              	.LCFI3:
 178              		.cfi_def_cfa_offset 32
 179              		.cfi_offset 3, -32
 180              		.cfi_offset 4, -28
 181              		.cfi_offset 5, -24
 182              		.cfi_offset 6, -20
 183              		.cfi_offset 7, -16
 184              		.cfi_offset 8, -12
 185              		.cfi_offset 9, -8
 186              		.cfi_offset 14, -4
 187 0004 8046     		mov	r8, r0
 188 0006 8946     		mov	r9, r1
 189 0008 57EC126B 		fmrrd	r6, r7, d2
 190 000c 55EC134B 		fmrrd	r4, r5, d3
  78:Src/assert.c  **** 	//char buffer[50] = "";
  79:Src/assert.c  **** 	//sprintf(buffer, "%g / %g / %g\n",targetX, angle, absPerso(angle - targetX));
  80:Src/assert.c  **** 	//HAL_UART_Transmit(&huart2, buffer, sizeof(buffer), HAL_MAX_DELAY);
  81:Src/assert.c  **** 	
  82:Src/assert.c  **** 	static double angleInit = 0.0;
  83:Src/assert.c  ****     
  84:Src/assert.c  ****     static int firstLoopPass = 1;
  85:Src/assert.c  ****     
  86:Src/assert.c  ****     if (firstLoopPass == 1)
 191              		.loc 1 86 0
 192 0010 254B     		ldr	r3, .L21
 193              	.LVL22:
 194 0012 1B68     		ldr	r3, [r3]
 195 0014 012B     		cmp	r3, #1
 196 0016 05D1     		bne	.L6
  87:Src/assert.c  ****     {
  88:Src/assert.c  ****         angleInit = angle;
 197              		.loc 1 88 0
 198 0018 244B     		ldr	r3, .L21+4
 199 001a 83ED002B 		fstd	d2, [r3]
  89:Src/assert.c  ****         firstLoopPass = 0;
ARM GAS  /tmp/ccBvEo45.s 			page 6


 200              		.loc 1 89 0
 201 001e 0022     		movs	r2, #0
 202              	.LVL23:
 203 0020 214B     		ldr	r3, .L21
 204 0022 1A60     		str	r2, [r3]
 205              	.LVL24:
 206              	.L6:
  90:Src/assert.c  ****     }
  91:Src/assert.c  ****     
  92:Src/assert.c  **** 	
  93:Src/assert.c  **** 	if (targetX > angleInit /*absPerso(angle) < absPerso(targetX)*/)
 207              		.loc 1 93 0
 208 0024 2046     		mov	r0, r4
 209              	.LVL25:
 210 0026 2946     		mov	r1, r5
 211              	.LVL26:
 212 0028 204B     		ldr	r3, .L21+4
 213 002a D3E90023 		ldrd	r2, [r3]
 214 002e FFF7FEFF 		bl	__aeabi_dcmpgt
 215              	.LVL27:
 216 0032 E0B1     		cbz	r0, .L17
  94:Src/assert.c  ****     {
  95:Src/assert.c  **** 		if(targetX > angle)
 217              		.loc 1 95 0
 218 0034 2046     		mov	r0, r4
 219 0036 2946     		mov	r1, r5
 220 0038 3246     		mov	r2, r6
 221 003a 3B46     		mov	r3, r7
 222 003c FFF7FEFF 		bl	__aeabi_dcmpgt
 223              	.LVL28:
 224 0040 48B1     		cbz	r0, .L18
  96:Src/assert.c  **** 		{
  97:Src/assert.c  **** 			*consigneGauche = 1000;
 225              		.loc 1 97 0
 226 0042 4FF47A73 		mov	r3, #1000
 227 0046 C9F80030 		str	r3, [r9]
  98:Src/assert.c  **** 			*consigneDroit = -1000;
 228              		.loc 1 98 0
 229 004a A3F5FA63 		sub	r3, r3, #2000
 230 004e C8F80030 		str	r3, [r8]
 231 0052 BDE8F883 		pop	{r3, r4, r5, r6, r7, r8, r9, pc}
 232              	.LVL29:
 233              	.L18:
  99:Src/assert.c  **** 		}
 100:Src/assert.c  **** 		else
 101:Src/assert.c  **** 		{
 102:Src/assert.c  **** 			*consigneGauche = 0;
 234              		.loc 1 102 0
 235 0056 0023     		movs	r3, #0
 236 0058 C9F80030 		str	r3, [r9]
 103:Src/assert.c  **** 			*consigneDroit = 0;
 237              		.loc 1 103 0
 238 005c C8F80030 		str	r3, [r8]
 104:Src/assert.c  **** 			endOfMvt = 1;
 239              		.loc 1 104 0
 240 0060 0123     		movs	r3, #1
 241 0062 134A     		ldr	r2, .L21+8
ARM GAS  /tmp/ccBvEo45.s 			page 7


 242 0064 1360     		str	r3, [r2]
 105:Src/assert.c  **** 			firstLoopPass = 1;
 243              		.loc 1 105 0
 244 0066 104A     		ldr	r2, .L21
 245 0068 1360     		str	r3, [r2]
 246 006a BDE8F883 		pop	{r3, r4, r5, r6, r7, r8, r9, pc}
 247              	.LVL30:
 248              	.L17:
 106:Src/assert.c  **** 		}
 107:Src/assert.c  **** 	}
 108:Src/assert.c  **** 	else
 109:Src/assert.c  **** 	{
 110:Src/assert.c  **** 		if(targetX < angle)
 249              		.loc 1 110 0
 250 006e 2046     		mov	r0, r4
 251 0070 2946     		mov	r1, r5
 252 0072 3246     		mov	r2, r6
 253 0074 3B46     		mov	r3, r7
 254 0076 FFF7FEFF 		bl	__aeabi_dcmplt
 255              	.LVL31:
 256 007a 40B1     		cbz	r0, .L19
 111:Src/assert.c  **** 		{
 112:Src/assert.c  **** 			*consigneGauche = -1000;
 257              		.loc 1 112 0
 258 007c 0D4B     		ldr	r3, .L21+12
 259 007e C9F80030 		str	r3, [r9]
 113:Src/assert.c  **** 			*consigneDroit = 1000;
 260              		.loc 1 113 0
 261 0082 4FF47A73 		mov	r3, #1000
 262 0086 C8F80030 		str	r3, [r8]
 263 008a BDE8F883 		pop	{r3, r4, r5, r6, r7, r8, r9, pc}
 264              	.LVL32:
 265              	.L19:
 114:Src/assert.c  **** 			}
 115:Src/assert.c  **** 		else
 116:Src/assert.c  **** 		{
 117:Src/assert.c  **** 			*consigneGauche = 0;
 266              		.loc 1 117 0
 267 008e 0023     		movs	r3, #0
 268 0090 C9F80030 		str	r3, [r9]
 118:Src/assert.c  **** 			*consigneDroit = 0;
 269              		.loc 1 118 0
 270 0094 C8F80030 		str	r3, [r8]
 119:Src/assert.c  **** 			endOfMvt = 1;
 271              		.loc 1 119 0
 272 0098 0123     		movs	r3, #1
 273 009a 054A     		ldr	r2, .L21+8
 274 009c 1360     		str	r3, [r2]
 120:Src/assert.c  **** 			firstLoopPass = 1;
 275              		.loc 1 120 0
 276 009e 024A     		ldr	r2, .L21
 277 00a0 1360     		str	r3, [r2]
 278 00a2 BDE8F883 		pop	{r3, r4, r5, r6, r7, r8, r9, pc}
 279              	.LVL33:
 280              	.L22:
 281 00a6 00BF     		.align	2
 282              	.L21:
ARM GAS  /tmp/ccBvEo45.s 			page 8


 283 00a8 00000000 		.word	.LANCHOR0
 284 00ac 00000000 		.word	.LANCHOR1
 285 00b0 00000000 		.word	.LANCHOR2
 286 00b4 18FCFFFF 		.word	-1000
 287              		.cfi_endproc
 288              	.LFE125:
 290              		.global	__aeabi_dsub
 291              		.global	__aeabi_i2d
 292              		.global	__aeabi_d2iz
 293              		.section	.text.move,"ax",%progbits
 294              		.align	2
 295              		.global	move
 296              		.thumb
 297              		.thumb_func
 299              	move:
 300              	.LFB126:
 121:Src/assert.c  **** 		}
 122:Src/assert.c  ****     }
 123:Src/assert.c  **** }
 124:Src/assert.c  **** 
 125:Src/assert.c  **** 
 126:Src/assert.c  **** void move(int* consigneDroit, int* consigneGauche, double positionX, double positionY, double angle
 127:Src/assert.c  **** {
 301              		.loc 1 127 0
 302              		.cfi_startproc
 303              		@ args = 64, pretend = 0, frame = 16
 304              		@ frame_needed = 0, uses_anonymous_args = 0
 305              	.LVL34:
 306 0000 2DE9F04F 		push	{r4, r5, r6, r7, r8, r9, r10, fp, lr}
 307              	.LCFI4:
 308              		.cfi_def_cfa_offset 36
 309              		.cfi_offset 4, -36
 310              		.cfi_offset 5, -32
 311              		.cfi_offset 6, -28
 312              		.cfi_offset 7, -24
 313              		.cfi_offset 8, -20
 314              		.cfi_offset 9, -16
 315              		.cfi_offset 10, -12
 316              		.cfi_offset 11, -8
 317              		.cfi_offset 14, -4
 318 0004 2DED048B 		fstmfdd	sp!, {d8, d9}
 319              	.LCFI5:
 320              		.cfi_def_cfa_offset 52
 321              		.cfi_offset 80, -52
 322              		.cfi_offset 81, -48
 323              		.cfi_offset 82, -44
 324              		.cfi_offset 83, -40
 325 0008 85B0     		sub	sp, sp, #20
 326              	.LCFI6:
 327              		.cfi_def_cfa_offset 72
 328 000a 8146     		mov	r9, r0
 329 000c 8846     		mov	r8, r1
 330 000e 57EC106B 		fmrrd	r6, r7, d0
 331 0012 55EC114B 		fmrrd	r4, r5, d1
 332 0016 B0EE429A 		fcpys	s18, s4
 333 001a F0EE629A 		fcpys	s19, s5
 334 001e 9346     		mov	fp, r2
ARM GAS  /tmp/ccBvEo45.s 			page 9


 335 0020 9A46     		mov	r10, r3
 128:Src/assert.c  ****     static int isMvtDone = 0;
 129:Src/assert.c  ****     static int oldErrorDroite = 0;
 130:Src/assert.c  ****     static int errorSumDroite = 0;
 131:Src/assert.c  ****     static int oldErrorGauche = 0;
 132:Src/assert.c  ****     static int errorSumGauche = 0;
 133:Src/assert.c  ****     static double angleInit = 0.0;
 134:Src/assert.c  ****     static double positionXInit = 0.0;
 135:Src/assert.c  ****     static double positionYInit = 0.0;
 136:Src/assert.c  ****     static double distanceTravelled = 0.0;
 137:Src/assert.c  ****     static double distanceTarget = 0.0;
 138:Src/assert.c  ****     
 139:Src/assert.c  ****     static int firstLoopPass = 1;
 140:Src/assert.c  ****     
 141:Src/assert.c  ****     if (firstLoopPass == 1)
 336              		.loc 1 141 0
 337 0022 634B     		ldr	r3, .L31
 338              	.LVL35:
 339 0024 1B68     		ldr	r3, [r3]
 340 0026 012B     		cmp	r3, #1
 341 0028 3AD1     		bne	.L24
 342 002a B0EE448A 		fcpys	s16, s8
 343 002e F0EE648A 		fcpys	s17, s9
 142:Src/assert.c  ****     {
 143:Src/assert.c  ****         angleInit = angle;
 344              		.loc 1 143 0
 345 0032 604B     		ldr	r3, .L31+4
 346 0034 83ED002B 		fstd	d2, [r3]
 144:Src/assert.c  ****         positionXInit = positionX;
 347              		.loc 1 144 0
 348 0038 5F4B     		ldr	r3, .L31+8
 349 003a 83ED000B 		fstd	d0, [r3]
 145:Src/assert.c  ****         positionYInit = positionY;
 350              		.loc 1 145 0
 351 003e 5F4B     		ldr	r3, .L31+12
 352 0040 83ED001B 		fstd	d1, [r3]
 146:Src/assert.c  ****         distanceTarget = sqrt((targetX - positionX)*(targetX - positionX) + (targetY- positionY)*(t
 353              		.loc 1 146 0
 354 0044 51EC130B 		fmrrd	r0, r1, d3
 355              	.LVL36:
 356 0048 10EE102A 		fmrs	r2, s0	@ int
 357              	.LVL37:
 358 004c 3B46     		mov	r3, r7
 359 004e FFF7FEFF 		bl	__aeabi_dsub
 360              	.LVL38:
 361 0052 0246     		mov	r2, r0
 362 0054 0B46     		mov	r3, r1
 363 0056 FFF7FEFF 		bl	__aeabi_dmul
 364              	.LVL39:
 365 005a CDE90001 		strd	r0, [sp]
 366 005e 51EC180B 		fmrrd	r0, r1, d8
 367 0062 2246     		mov	r2, r4
 368 0064 2B46     		mov	r3, r5
 369 0066 FFF7FEFF 		bl	__aeabi_dsub
 370              	.LVL40:
 371 006a 0246     		mov	r2, r0
 372 006c 0B46     		mov	r3, r1
ARM GAS  /tmp/ccBvEo45.s 			page 10


 373 006e FFF7FEFF 		bl	__aeabi_dmul
 374              	.LVL41:
 375 0072 CDE90201 		strd	r0, [sp, #8]
 376 0076 DDE90001 		ldrd	r0, [sp]
 377 007a DDE90223 		ldrd	r2, [sp, #8]
 378 007e FFF7FEFF 		bl	__aeabi_dadd
 379              	.LVL42:
 380 0082 41EC100B 		fmdrr	d0, r0, r1
 381 0086 FFF7FEFF 		bl	sqrt
 382              	.LVL43:
 383 008a 4D4B     		ldr	r3, .L31+16
 384 008c 83ED000B 		fstd	d0, [r3]
 147:Src/assert.c  ****         firstLoopPass = 0;
 385              		.loc 1 147 0
 386 0090 0022     		movs	r2, #0
 387 0092 474B     		ldr	r3, .L31
 388 0094 1A60     		str	r2, [r3]
 148:Src/assert.c  ****         distanceTravelled = 0.0;
 389              		.loc 1 148 0
 390 0096 0020     		movs	r0, #0
 391 0098 0021     		movs	r1, #0
 392 009a 4A4B     		ldr	r3, .L31+20
 393 009c C3E90001 		strd	r0, [r3]
 394              	.LVL44:
 395              	.L24:
 149:Src/assert.c  ****     }
 150:Src/assert.c  ****     
 151:Src/assert.c  ****     distanceTravelled = sqrt((positionX - positionXInit)*(positionX - positionXInit) + (positionY- 
 396              		.loc 1 151 0
 397 00a0 3046     		mov	r0, r6
 398 00a2 3946     		mov	r1, r7
 399 00a4 444B     		ldr	r3, .L31+8
 400 00a6 D3E90023 		ldrd	r2, [r3]
 401 00aa FFF7FEFF 		bl	__aeabi_dsub
 402              	.LVL45:
 403 00ae 0246     		mov	r2, r0
 404 00b0 0B46     		mov	r3, r1
 405 00b2 FFF7FEFF 		bl	__aeabi_dmul
 406              	.LVL46:
 407 00b6 0646     		mov	r6, r0
 408              	.LVL47:
 409 00b8 0F46     		mov	r7, r1
 410 00ba 2046     		mov	r0, r4
 411 00bc 2946     		mov	r1, r5
 412 00be 3F4B     		ldr	r3, .L31+12
 413 00c0 D3E90023 		ldrd	r2, [r3]
 414 00c4 FFF7FEFF 		bl	__aeabi_dsub
 415              	.LVL48:
 416 00c8 0246     		mov	r2, r0
 417 00ca 0B46     		mov	r3, r1
 418 00cc FFF7FEFF 		bl	__aeabi_dmul
 419              	.LVL49:
 420 00d0 0446     		mov	r4, r0
 421              	.LVL50:
 422 00d2 0D46     		mov	r5, r1
 423 00d4 3046     		mov	r0, r6
 424 00d6 3946     		mov	r1, r7
ARM GAS  /tmp/ccBvEo45.s 			page 11


 425 00d8 2246     		mov	r2, r4
 426 00da 2B46     		mov	r3, r5
 427 00dc FFF7FEFF 		bl	__aeabi_dadd
 428              	.LVL51:
 429 00e0 41EC100B 		fmdrr	d0, r0, r1
 430 00e4 FFF7FEFF 		bl	sqrt
 431              	.LVL52:
 432 00e8 57EC106B 		fmrrd	r6, r7, d0
 433 00ec 354B     		ldr	r3, .L31+20
 434 00ee 83ED000B 		fstd	d0, [r3]
 152:Src/assert.c  ****     angle = angle-angleInit;
 435              		.loc 1 152 0
 436 00f2 51EC190B 		fmrrd	r0, r1, d9
 437 00f6 2F4B     		ldr	r3, .L31+4
 438 00f8 D3E90023 		ldrd	r2, [r3]
 439 00fc FFF7FEFF 		bl	__aeabi_dsub
 440              	.LVL53:
 441 0100 0446     		mov	r4, r0
 442 0102 0D46     		mov	r5, r1
 443              	.LVL54:
 153:Src/assert.c  ****     
 154:Src/assert.c  ****     
 155:Src/assert.c  ****     if (distanceTravelled > distanceTarget/*(absPerso(positionX - targetX) < 50) && (absPerso(posit
 444              		.loc 1 155 0
 445 0104 3046     		mov	r0, r6
 446 0106 3946     		mov	r1, r7
 447 0108 2D4B     		ldr	r3, .L31+16
 448 010a D3E90023 		ldrd	r2, [r3]
 449 010e FFF7FEFF 		bl	__aeabi_dcmpgt
 450              	.LVL55:
 451 0112 18B1     		cbz	r0, .L25
 156:Src/assert.c  ****     {
 157:Src/assert.c  **** 		//char buffer[50] = "";
 158:Src/assert.c  **** 		//sprintf(buffer, "%d / %d\n",(int)targetX, (int)absPerso(positionY - targetY));
 159:Src/assert.c  **** 		//HAL_UART_Transmit(&huart2, buffer, sizeof(buffer), HAL_MAX_DELAY);
 160:Src/assert.c  ****         isMvtDone += 1;
 452              		.loc 1 160 0
 453 0114 2C4A     		ldr	r2, .L31+24
 454 0116 1368     		ldr	r3, [r2]
 455 0118 0133     		adds	r3, r3, #1
 456 011a 1360     		str	r3, [r2]
 457              	.L25:
 161:Src/assert.c  ****     }
 162:Src/assert.c  ****     if(isMvtDone > 5)
 458              		.loc 1 162 0
 459 011c 2A4B     		ldr	r3, .L31+24
 460 011e 1B68     		ldr	r3, [r3]
 461 0120 052B     		cmp	r3, #5
 462 0122 0CDD     		ble	.L27
 163:Src/assert.c  ****     {
 164:Src/assert.c  ****         isMvtDone = 0;
 463              		.loc 1 164 0
 464 0124 0023     		movs	r3, #0
 465 0126 284A     		ldr	r2, .L31+24
 466 0128 1360     		str	r3, [r2]
 165:Src/assert.c  ****         endOfMvt = 1;
 467              		.loc 1 165 0
ARM GAS  /tmp/ccBvEo45.s 			page 12


 468 012a 0122     		movs	r2, #1
 469 012c 2749     		ldr	r1, .L31+28
 470 012e 0A60     		str	r2, [r1]
 166:Src/assert.c  ****         *consigneDroit = 0;
 471              		.loc 1 166 0
 472 0130 C9F80030 		str	r3, [r9]
 167:Src/assert.c  ****         *consigneGauche = 0;
 473              		.loc 1 167 0
 474 0134 C8F80030 		str	r3, [r8]
 168:Src/assert.c  ****         firstLoopPass = 1;
 475              		.loc 1 168 0
 476 0138 1D4B     		ldr	r3, .L31
 477 013a 1A60     		str	r2, [r3]
 478 013c 32E0     		b	.L23
 479              	.L27:
 480              	.LVL56:
 481              	.LBB2:
 169:Src/assert.c  ****     }
 170:Src/assert.c  ****     else
 171:Src/assert.c  ****     {
 172:Src/assert.c  **** 		//No ramps for the time being :/ refer to MainNucleoOLD for implementation
 173:Src/assert.c  **** 		
 174:Src/assert.c  **** 		
 175:Src/assert.c  **** 		//need to modify the target sppeed for positionning
 176:Src/assert.c  **** 		int targetSpeed = 170; //tick per ms
 177:Src/assert.c  **** 		
 178:Src/assert.c  **** 		int errorDroite = targetSpeed - tim5;
 482              		.loc 1 178 0
 483 013e CAF1AA06 		rsb	r6, r10, #170
 484              	.LVL57:
 179:Src/assert.c  **** 		errorSumDroite += errorDroite;
 485              		.loc 1 179 0
 486 0142 234A     		ldr	r2, .L31+32
 487 0144 1368     		ldr	r3, [r2]
 488 0146 3344     		add	r3, r3, r6
 489 0148 1360     		str	r3, [r2]
 490              	.LVL58:
 180:Src/assert.c  **** 		/*//circular buffer
 181:Src/assert.c  **** 		int errorSumDroite = 0;
 182:Src/assert.c  **** 		static int indexBuffer = 0;
 183:Src/assert.c  **** 		static int circularBuffer[100] = {0};
 184:Src/assert.c  **** 		for (int i = 0; i < 100; i++) {errorSumDroite += circularBuffer[i];}
 185:Src/assert.c  **** 		circularBuffer[indexBuffer] = errorDroite;
 186:Src/assert.c  **** 		indexBuffer += 1;
 187:Src/assert.c  **** 		if(indexBuffer > 100){indexBuffer = 0;}
 188:Src/assert.c  **** 		*/
 189:Src/assert.c  **** 		int errorVariationDroite = errorDroite - oldErrorDroite;
 190:Src/assert.c  **** 		*consigneDroit = Kp_Droite * errorDroite + Ki_Droite * errorSumDroite + Kd_Droite * errorVariatio
 491              		.loc 1 190 0
 492 014a 06EB8607 		add	r7, r6, r6, lsl #2
 493 014e 7F00     		lsls	r7, r7, #1
 494 0150 2046     		mov	r0, r4
 495 0152 2946     		mov	r1, r5
 496 0154 0022     		movs	r2, #0
 497 0156 1F4B     		ldr	r3, .L31+36
 498 0158 FFF7FEFF 		bl	__aeabi_dmul
 499              	.LVL59:
ARM GAS  /tmp/ccBvEo45.s 			page 13


 500 015c 0446     		mov	r4, r0
 501              	.LVL60:
 502 015e 0D46     		mov	r5, r1
 503 0160 3846     		mov	r0, r7
 504 0162 FFF7FEFF 		bl	__aeabi_i2d
 505              	.LVL61:
 506 0166 2246     		mov	r2, r4
 507 0168 2B46     		mov	r3, r5
 508 016a FFF7FEFF 		bl	__aeabi_dadd
 509              	.LVL62:
 510 016e FFF7FEFF 		bl	__aeabi_d2iz
 511              	.LVL63:
 512 0172 C9F80000 		str	r0, [r9]
 191:Src/assert.c  **** 		oldErrorDroite = errorDroite;
 513              		.loc 1 191 0
 514 0176 184B     		ldr	r3, .L31+40
 515 0178 1E60     		str	r6, [r3]
 192:Src/assert.c  **** 		
 193:Src/assert.c  **** 		
 194:Src/assert.c  **** 		int errorGauche = targetSpeed - tim4;
 516              		.loc 1 194 0
 517 017a CBF1AA06 		rsb	r6, fp, #170
 518              	.LVL64:
 195:Src/assert.c  **** 		errorSumGauche += errorGauche;
 519              		.loc 1 195 0
 520 017e 174A     		ldr	r2, .L31+44
 521 0180 1368     		ldr	r3, [r2]
 522 0182 3344     		add	r3, r3, r6
 523 0184 1360     		str	r3, [r2]
 524              	.LVL65:
 196:Src/assert.c  **** 		int errorVariationGauche = errorGauche - oldErrorGauche;
 197:Src/assert.c  **** 		*consigneGauche = Kp_Gauche * errorGauche + Ki_Gauche * errorSumGauche + Kd_Gauche * errorVariati
 525              		.loc 1 197 0
 526 0186 06EB8600 		add	r0, r6, r6, lsl #2
 527 018a 4000     		lsls	r0, r0, #1
 528 018c FFF7FEFF 		bl	__aeabi_i2d
 529              	.LVL66:
 530 0190 2246     		mov	r2, r4
 531 0192 2B46     		mov	r3, r5
 532 0194 FFF7FEFF 		bl	__aeabi_dsub
 533              	.LVL67:
 534 0198 FFF7FEFF 		bl	__aeabi_d2iz
 535              	.LVL68:
 536 019c C8F80000 		str	r0, [r8]
 198:Src/assert.c  **** 		oldErrorGauche = errorGauche;
 537              		.loc 1 198 0
 538 01a0 0F4B     		ldr	r3, .L31+48
 539 01a2 1E60     		str	r6, [r3]
 540              	.LVL69:
 541              	.L23:
 542              	.LBE2:
 199:Src/assert.c  **** 	}
 200:Src/assert.c  ****     
 201:Src/assert.c  **** }
 543              		.loc 1 201 0
 544 01a4 05B0     		add	sp, sp, #20
 545              	.LCFI7:
ARM GAS  /tmp/ccBvEo45.s 			page 14


 546              		.cfi_def_cfa_offset 52
 547              		@ sp needed
 548 01a6 BDEC048B 		fldmfdd	sp!, {d8-d9}
 549              	.LCFI8:
 550              		.cfi_restore 82
 551              		.cfi_restore 83
 552              		.cfi_restore 80
 553              		.cfi_restore 81
 554              		.cfi_def_cfa_offset 36
 555 01aa BDE8F08F 		pop	{r4, r5, r6, r7, r8, r9, r10, fp, pc}
 556              	.LVL70:
 557              	.L32:
 558 01ae 00BF     		.align	2
 559              	.L31:
 560 01b0 00000000 		.word	.LANCHOR3
 561 01b4 00000000 		.word	.LANCHOR4
 562 01b8 00000000 		.word	.LANCHOR5
 563 01bc 00000000 		.word	.LANCHOR6
 564 01c0 00000000 		.word	.LANCHOR7
 565 01c4 00000000 		.word	.LANCHOR8
 566 01c8 00000000 		.word	.LANCHOR9
 567 01cc 00000000 		.word	.LANCHOR2
 568 01d0 00000000 		.word	.LANCHOR10
 569 01d4 00408F40 		.word	1083129856
 570 01d8 00000000 		.word	.LANCHOR11
 571 01dc 00000000 		.word	.LANCHOR12
 572 01e0 00000000 		.word	.LANCHOR13
 573              		.cfi_endproc
 574              	.LFE126:
 576              		.global	__aeabi_d2uiz
 577              		.section	.text.stateMachine,"ax",%progbits
 578              		.align	2
 579              		.global	stateMachine
 580              		.thumb
 581              		.thumb_func
 583              	stateMachine:
 584              	.LFB124:
  40:Src/assert.c  ****     static int state = 0;
 585              		.loc 1 40 0
 586              		.cfi_startproc
 587              		@ args = 64, pretend = 0, frame = 0
 588              		@ frame_needed = 0, uses_anonymous_args = 0
 589              	.LVL71:
 590 0000 2DE9F043 		push	{r4, r5, r6, r7, r8, r9, lr}
 591              	.LCFI9:
 592              		.cfi_def_cfa_offset 28
 593              		.cfi_offset 4, -28
 594              		.cfi_offset 5, -24
 595              		.cfi_offset 6, -20
 596              		.cfi_offset 7, -16
 597              		.cfi_offset 8, -12
 598              		.cfi_offset 9, -8
 599              		.cfi_offset 14, -4
 600 0004 2DED068B 		fstmfdd	sp!, {d8, d9, d10}
 601              	.LCFI10:
 602              		.cfi_def_cfa_offset 52
 603              		.cfi_offset 80, -52
ARM GAS  /tmp/ccBvEo45.s 			page 15


 604              		.cfi_offset 81, -48
 605              		.cfi_offset 82, -44
 606              		.cfi_offset 83, -40
 607              		.cfi_offset 84, -36
 608              		.cfi_offset 85, -32
 609 0008 91B0     		sub	sp, sp, #68
 610              	.LCFI11:
 611              		.cfi_def_cfa_offset 120
 612 000a 8146     		mov	r9, r0
 613 000c 8846     		mov	r8, r1
 614 000e B0EE40AA 		fcpys	s20, s0
 615 0012 F0EE60AA 		fcpys	s21, s1
 616 0016 B0EE419A 		fcpys	s18, s2
 617 001a F0EE619A 		fcpys	s19, s3
 618 001e B0EE428A 		fcpys	s16, s4
 619 0022 F0EE628A 		fcpys	s17, s5
 620 0026 1746     		mov	r7, r2
 621 0028 1E46     		mov	r6, r3
  43:Src/assert.c  ****     {
 622              		.loc 1 43 0
 623 002a 4B4B     		ldr	r3, .L43
 624              	.LVL72:
 625 002c 1B68     		ldr	r3, [r3]
 626 002e 012B     		cmp	r3, #1
 627 0030 0DD1     		bne	.L34
  45:Src/assert.c  ****         state += 1;
 628              		.loc 1 45 0
 629 0032 0022     		movs	r2, #0
 630              	.LVL73:
 631 0034 484B     		ldr	r3, .L43
 632 0036 1A60     		str	r2, [r3]
  46:Src/assert.c  ****         HAL_UART_Transmit(&huart2, "Fin de l'action\n", sizeof("Fin de l'action\n"), HAL_MAX_DELAY)
 633              		.loc 1 46 0
 634 0038 484A     		ldr	r2, .L43+4
 635 003a 1368     		ldr	r3, [r2]
 636 003c 0133     		adds	r3, r3, #1
 637 003e 1360     		str	r3, [r2]
  47:Src/assert.c  ****     }
 638              		.loc 1 47 0
 639 0040 1EA8     		add	r0, sp, #120
 640              	.LVL74:
 641 0042 4749     		ldr	r1, .L43+8
 642              	.LVL75:
 643 0044 1122     		movs	r2, #17
 644 0046 4FF0FF33 		mov	r3, #-1
 645 004a FFF7FEFF 		bl	HAL_UART_Transmit
 646              	.LVL76:
 647              	.L34:
  50:Src/assert.c  ****     {
 648              		.loc 1 50 0
 649 004e 434B     		ldr	r3, .L43+4
 650 0050 1B68     		ldr	r3, [r3]
 651 0052 444A     		ldr	r2, .L43+12
 652 0054 D25C     		ldrb	r2, [r2, r3]	@ zero_extendqisi2
 653 0056 413A     		subs	r2, r2, #65
 654 0058 132A     		cmp	r2, #19
 655 005a 78D8     		bhi	.L33
ARM GAS  /tmp/ccBvEo45.s 			page 16


 656 005c DFE802F0 		tbb	[pc, r2]
 657              	.L37:
 658 0060 32       		.byte	(.L36-.L37)/2
 659 0061 77       		.byte	(.L33-.L37)/2
 660 0062 77       		.byte	(.L33-.L37)/2
 661 0063 77       		.byte	(.L33-.L37)/2
 662 0064 6F       		.byte	(.L38-.L37)/2
 663 0065 77       		.byte	(.L33-.L37)/2
 664 0066 77       		.byte	(.L33-.L37)/2
 665 0067 77       		.byte	(.L33-.L37)/2
 666 0068 77       		.byte	(.L33-.L37)/2
 667 0069 77       		.byte	(.L33-.L37)/2
 668 006a 77       		.byte	(.L33-.L37)/2
 669 006b 77       		.byte	(.L33-.L37)/2
 670 006c 0A       		.byte	(.L39-.L37)/2
 671 006d 77       		.byte	(.L33-.L37)/2
 672 006e 77       		.byte	(.L33-.L37)/2
 673 006f 77       		.byte	(.L33-.L37)/2
 674 0070 77       		.byte	(.L33-.L37)/2
 675 0071 77       		.byte	(.L33-.L37)/2
 676 0072 77       		.byte	(.L33-.L37)/2
 677 0073 5A       		.byte	(.L40-.L37)/2
 678              		.p2align 1
 679              	.L39:
  53:Src/assert.c  ****         //char buffer[50] = "";
 680              		.loc 1 53 0
 681 0074 DB00     		lsls	r3, r3, #3
 682 0076 3C4A     		ldr	r2, .L43+16
 683 0078 1A44     		add	r2, r2, r3
 684 007a 92ED003B 		fldd	d3, [r2]
 685 007e 3B4A     		ldr	r2, .L43+20
 686 0080 1344     		add	r3, r3, r2
 687 0082 93ED004B 		fldd	d4, [r3]
 688 0086 6C46     		mov	r4, sp
 689 0088 1EAD     		add	r5, sp, #120
 690 008a 0FCD     		ldmia	r5!, {r0, r1, r2, r3}
 691 008c 0FC4     		stmia	r4!, {r0, r1, r2, r3}
 692 008e 0FCD     		ldmia	r5!, {r0, r1, r2, r3}
 693 0090 0FC4     		stmia	r4!, {r0, r1, r2, r3}
 694 0092 0FCD     		ldmia	r5!, {r0, r1, r2, r3}
 695 0094 0FC4     		stmia	r4!, {r0, r1, r2, r3}
 696 0096 95E80F00 		ldmia	r5, {r0, r1, r2, r3}
 697 009a 84E80F00 		stmia	r4, {r0, r1, r2, r3}
 698 009e 4846     		mov	r0, r9
 699 00a0 4146     		mov	r1, r8
 700 00a2 B0EE4A0A 		fcpys	s0, s20
 701 00a6 F0EE6A0A 		fcpys	s1, s21
 702 00aa B0EE491A 		fcpys	s2, s18
 703 00ae F0EE691A 		fcpys	s3, s19
 704 00b2 B0EE482A 		fcpys	s4, s16
 705 00b6 F0EE682A 		fcpys	s5, s17
 706 00ba 3A46     		mov	r2, r7
 707 00bc 3346     		mov	r3, r6
 708 00be FFF7FEFF 		bl	move
 709              	.LVL77:
  57:Src/assert.c  ****         
 710              		.loc 1 57 0
ARM GAS  /tmp/ccBvEo45.s 			page 17


 711 00c2 44E0     		b	.L33
 712              	.L36:
  60:Src/assert.c  **** 		break;
 713              		.loc 1 60 0
 714 00c4 DB00     		lsls	r3, r3, #3
 715 00c6 284A     		ldr	r2, .L43+16
 716 00c8 1A44     		add	r2, r2, r3
 717 00ca 92ED003B 		fldd	d3, [r2]
 718 00ce 274A     		ldr	r2, .L43+20
 719 00d0 1344     		add	r3, r3, r2
 720 00d2 93ED004B 		fldd	d4, [r3]
 721 00d6 6C46     		mov	r4, sp
 722 00d8 1EAD     		add	r5, sp, #120
 723 00da 0FCD     		ldmia	r5!, {r0, r1, r2, r3}
 724 00dc 0FC4     		stmia	r4!, {r0, r1, r2, r3}
 725 00de 0FCD     		ldmia	r5!, {r0, r1, r2, r3}
 726 00e0 0FC4     		stmia	r4!, {r0, r1, r2, r3}
 727 00e2 0FCD     		ldmia	r5!, {r0, r1, r2, r3}
 728 00e4 0FC4     		stmia	r4!, {r0, r1, r2, r3}
 729 00e6 95E80F00 		ldmia	r5, {r0, r1, r2, r3}
 730 00ea 84E80F00 		stmia	r4, {r0, r1, r2, r3}
 731 00ee 4846     		mov	r0, r9
 732 00f0 4146     		mov	r1, r8
 733 00f2 B0EE4A0A 		fcpys	s0, s20
 734 00f6 F0EE6A0A 		fcpys	s1, s21
 735 00fa B0EE491A 		fcpys	s2, s18
 736 00fe F0EE691A 		fcpys	s3, s19
 737 0102 B0EE482A 		fcpys	s4, s16
 738 0106 F0EE682A 		fcpys	s5, s17
 739 010a 3A46     		mov	r2, r7
 740 010c 3346     		mov	r3, r6
 741 010e FFF7FEFF 		bl	turn
 742              	.LVL78:
  61:Src/assert.c  ****         
 743              		.loc 1 61 0
 744 0112 1CE0     		b	.L33
 745              	.L40:
  64:Src/assert.c  ****         HAL_Delay(val1[state]);
 746              		.loc 1 64 0
 747 0114 1EA8     		add	r0, sp, #120
 748 0116 1649     		ldr	r1, .L43+24
 749 0118 0E22     		movs	r2, #14
 750 011a 4FF0FF33 		mov	r3, #-1
 751 011e FFF7FEFF 		bl	HAL_UART_Transmit
 752              	.LVL79:
  65:Src/assert.c  ****         endOfMvt = 1;
 753              		.loc 1 65 0
 754 0122 0E4B     		ldr	r3, .L43+4
 755 0124 1A68     		ldr	r2, [r3]
 756 0126 104B     		ldr	r3, .L43+16
 757 0128 03EBC203 		add	r3, r3, r2, lsl #3
 758 012c D3E90001 		ldrd	r0, [r3]
 759 0130 FFF7FEFF 		bl	__aeabi_d2uiz
 760              	.LVL80:
 761 0134 FFF7FEFF 		bl	HAL_Delay
 762              	.LVL81:
  66:Src/assert.c  **** 
ARM GAS  /tmp/ccBvEo45.s 			page 18


 763              		.loc 1 66 0
 764 0138 0122     		movs	r2, #1
 765 013a 074B     		ldr	r3, .L43
 766 013c 1A60     		str	r2, [r3]
 767              	.L38:
  69:Src/assert.c  ****         while(1){}
 768              		.loc 1 69 0
 769 013e 1EA8     		add	r0, sp, #120
 770 0140 0C49     		ldr	r1, .L43+28
 771 0142 0E22     		movs	r2, #14
 772 0144 4FF0FF33 		mov	r3, #-1
 773 0148 FFF7FEFF 		bl	HAL_UART_Transmit
 774              	.LVL82:
 775              	.L41:
  70:Src/assert.c  ****         break;
 776              		.loc 1 70 0 discriminator 1
 777 014c FEE7     		b	.L41
 778              	.L33:
  73:Src/assert.c  **** 
 779              		.loc 1 73 0
 780 014e 11B0     		add	sp, sp, #68
 781              	.LCFI12:
 782              		.cfi_def_cfa_offset 52
 783              		@ sp needed
 784 0150 BDEC068B 		fldmfdd	sp!, {d8-d10}
 785              	.LCFI13:
 786              		.cfi_restore 84
 787              		.cfi_restore 85
 788              		.cfi_restore 82
 789              		.cfi_restore 83
 790              		.cfi_restore 80
 791              		.cfi_restore 81
 792              		.cfi_def_cfa_offset 28
 793              	.LVL83:
 794 0154 BDE8F083 		pop	{r4, r5, r6, r7, r8, r9, pc}
 795              	.LVL84:
 796              	.L44:
 797              		.align	2
 798              	.L43:
 799 0158 00000000 		.word	.LANCHOR2
 800 015c 00000000 		.word	.LANCHOR14
 801 0160 00000000 		.word	.LC0
 802 0164 00000000 		.word	.LANCHOR15
 803 0168 00000000 		.word	.LANCHOR16
 804 016c 00000000 		.word	.LANCHOR17
 805 0170 14000000 		.word	.LC1
 806 0174 24000000 		.word	.LC2
 807              		.cfi_endproc
 808              	.LFE124:
 810              		.section	.text.absPerso,"ax",%progbits
 811              		.align	2
 812              		.global	absPerso
 813              		.thumb
 814              		.thumb_func
 816              	absPerso:
 817              	.LFB127:
 202:Src/assert.c  **** 
ARM GAS  /tmp/ccBvEo45.s 			page 19


 203:Src/assert.c  **** double absPerso(double x)
 204:Src/assert.c  **** {
 818              		.loc 1 204 0
 819              		.cfi_startproc
 820              		@ args = 0, pretend = 0, frame = 0
 821              		@ frame_needed = 0, uses_anonymous_args = 0
 822              	.LVL85:
 823 0000 38B5     		push	{r3, r4, r5, lr}
 824              	.LCFI14:
 825              		.cfi_def_cfa_offset 16
 826              		.cfi_offset 3, -16
 827              		.cfi_offset 4, -12
 828              		.cfi_offset 5, -8
 829              		.cfi_offset 14, -4
 830 0002 55EC104B 		fmrrd	r4, r5, d0
 205:Src/assert.c  **** 	if(x < 0) x = -x; 
 831              		.loc 1 205 0
 832 0006 10EE100A 		fmrs	r0, s0	@ int
 833 000a 2946     		mov	r1, r5
 834 000c 0022     		movs	r2, #0
 835 000e 0023     		movs	r3, #0
 836 0010 FFF7FEFF 		bl	__aeabi_dcmplt
 837              	.LVL86:
 838 0014 10B1     		cbz	r0, .L46
 839              		.loc 1 205 0 is_stmt 0 discriminator 1
 840 0016 05F10043 		add	r3, r5, #-2147483648
 841 001a 1D46     		mov	r5, r3
 842              	.LVL87:
 843              	.L46:
 206:Src/assert.c  **** 	return x;
 207:Src/assert.c  **** }
 844              		.loc 1 207 0 is_stmt 1
 845 001c 45EC104B 		fmdrr	d0, r4, r5
 846 0020 38BD     		pop	{r3, r4, r5, pc}
 847              		.cfi_endproc
 848              	.LFE127:
 850              		.global	endOfMvt
 851              		.global	val2
 852              		.global	val1
 853              		.global	consignes
 854 0022 00BF     		.section	.bss.errorSumGauche.7960,"aw",%nobits
 855              		.align	2
 856              		.set	.LANCHOR12,. + 0
 859              	errorSumGauche.7960:
 860 0000 00000000 		.space	4
 861              		.section	.bss.isMvtDone.7956,"aw",%nobits
 862              		.align	2
 863              		.set	.LANCHOR9,. + 0
 866              	isMvtDone.7956:
 867 0000 00000000 		.space	4
 868              		.section	.bss.angleInit.7961,"aw",%nobits
 869              		.align	3
 870              		.set	.LANCHOR4,. + 0
 873              	angleInit.7961:
 874 0000 00000000 		.space	8
 874      00000000 
 875              		.section	.data.val1,"aw",%progbits
ARM GAS  /tmp/ccBvEo45.s 			page 20


 876              		.align	3
 877              		.set	.LANCHOR16,. + 0
 880              	val1:
 881 0000 00000000 		.word	0
 882 0004 00006940 		.word	1080623104
 883 0008 00000000 		.word	0
 884 000c 0000F03F 		.word	1072693248
 885 0010 00000000 		.word	0
 886 0014 00006940 		.word	1080623104
 887 0018 00000000 		.word	0
 888 001c 0000F0BF 		.word	-1074790400
 889 0020 00000000 		.word	0
 890 0024 00409F40 		.word	1084178432
 891 0028 00000000 		.word	0
 892 002c 00006940 		.word	1080623104
 893 0030 00000000 		.word	0
 894 0034 00000000 		.word	0
 895              		.section	.bss.oldErrorGauche.7959,"aw",%nobits
 896              		.align	2
 897              		.set	.LANCHOR13,. + 0
 900              	oldErrorGauche.7959:
 901 0000 00000000 		.space	4
 902              		.section	.data.firstLoopPass.7966,"aw",%progbits
 903              		.align	2
 904              		.set	.LANCHOR3,. + 0
 907              	firstLoopPass.7966:
 908 0000 01000000 		.word	1
 909              		.section	.bss.val2,"aw",%nobits
 910              		.align	3
 911              		.set	.LANCHOR17,. + 0
 914              	val2:
 915 0000 00000000 		.space	56
 915      00000000 
 915      00000000 
 915      00000000 
 915      00000000 
 916              		.section	.bss.positionYInit.7963,"aw",%nobits
 917              		.align	3
 918              		.set	.LANCHOR6,. + 0
 921              	positionYInit.7963:
 922 0000 00000000 		.space	8
 922      00000000 
 923              		.section	.data.firstLoopPass.7943,"aw",%progbits
 924              		.align	2
 925              		.set	.LANCHOR0,. + 0
 928              	firstLoopPass.7943:
 929 0000 01000000 		.word	1
 930              		.section	.bss.distanceTarget.7965,"aw",%nobits
 931              		.align	3
 932              		.set	.LANCHOR7,. + 0
 935              	distanceTarget.7965:
 936 0000 00000000 		.space	8
 936      00000000 
 937              		.section	.rodata.str1.4,"aMS",%progbits,1
 938              		.align	2
 939              	.LC0:
 940 0000 46696E20 		.ascii	"Fin de l'action\012\000"
ARM GAS  /tmp/ccBvEo45.s 			page 21


 940      6465206C 
 940      27616374 
 940      696F6E0A 
 940      00
 941 0011 000000   		.space	3
 942              	.LC1:
 943 0014 4C657427 		.ascii	"Let's wait !\012\000"
 943      73207761 
 943      69742021 
 943      0A00
 944 0022 0000     		.space	2
 945              	.LC2:
 946 0024 46696E20 		.ascii	"Fin de match\012\000"
 946      6465206D 
 946      61746368 
 946      0A00
 947              		.section	.bss.positionXInit.7962,"aw",%nobits
 948              		.align	3
 949              		.set	.LANCHOR5,. + 0
 952              	positionXInit.7962:
 953 0000 00000000 		.space	8
 953      00000000 
 954              		.section	.bss.oldErrorDroite.7957,"aw",%nobits
 955              		.align	2
 956              		.set	.LANCHOR11,. + 0
 959              	oldErrorDroite.7957:
 960 0000 00000000 		.space	4
 961              		.section	.bss.distanceTravelled.7964,"aw",%nobits
 962              		.align	3
 963              		.set	.LANCHOR8,. + 0
 966              	distanceTravelled.7964:
 967 0000 00000000 		.space	8
 967      00000000 
 968              		.section	.bss.endOfMvt,"aw",%nobits
 969              		.align	2
 970              		.set	.LANCHOR2,. + 0
 973              	endOfMvt:
 974 0000 00000000 		.space	4
 975              		.section	.bss.state.7923,"aw",%nobits
 976              		.align	2
 977              		.set	.LANCHOR14,. + 0
 980              	state.7923:
 981 0000 00000000 		.space	4
 982              		.section	.bss.angleInit.7942,"aw",%nobits
 983              		.align	3
 984              		.set	.LANCHOR1,. + 0
 987              	angleInit.7942:
 988 0000 00000000 		.space	8
 988      00000000 
 989              		.section	.bss.errorSumDroite.7958,"aw",%nobits
 990              		.align	2
 991              		.set	.LANCHOR10,. + 0
 994              	errorSumDroite.7958:
 995 0000 00000000 		.space	4
 996              		.section	.data.consignes,"aw",%progbits
 997              		.align	2
 998              		.set	.LANCHOR15,. + 0
ARM GAS  /tmp/ccBvEo45.s 			page 22


 1001              	consignes:
 1002 0000 4D       		.byte	77
 1003 0001 41       		.byte	65
 1004 0002 4D       		.byte	77
 1005 0003 41       		.byte	65
 1006 0004 54       		.byte	84
 1007 0005 4D       		.byte	77
 1008 0006 45       		.byte	69
 1009              		.text
 1010              	.Letext0:
 1011              		.file 2 "/usr/include/newlib/machine/_default_types.h"
 1012              		.file 3 "/usr/include/newlib/sys/_stdint.h"
 1013              		.file 4 "Drivers/CMSIS/Device/ST/STM32F4xx/Include/stm32f401xe.h"
 1014              		.file 5 "Drivers/STM32F4xx_HAL_Driver/Inc/stm32f4xx_hal_def.h"
 1015              		.file 6 "Drivers/STM32F4xx_HAL_Driver/Inc/stm32f4xx_hal_dma.h"
 1016              		.file 7 "Drivers/STM32F4xx_HAL_Driver/Inc/stm32f4xx_hal_uart.h"
 1017              		.file 8 "Drivers/CMSIS/Include/core_cm4.h"
 1018              		.file 9 "/usr/include/newlib/math.h"
 1019              		.file 10 "Drivers/STM32F4xx_HAL_Driver/Inc/stm32f4xx_hal.h"
ARM GAS  /tmp/ccBvEo45.s 			page 23


DEFINED SYMBOLS
                            *ABS*:0000000000000000 assert.c
     /tmp/ccBvEo45.s:25     .text.updatePos:0000000000000000 $t
     /tmp/ccBvEo45.s:30     .text.updatePos:0000000000000000 updatePos
     /tmp/ccBvEo45.s:155    .text.updatePos:00000000000000d8 $d
     /tmp/ccBvEo45.s:164    .text.turn:0000000000000000 $t
     /tmp/ccBvEo45.s:169    .text.turn:0000000000000000 turn
     /tmp/ccBvEo45.s:283    .text.turn:00000000000000a8 $d
     /tmp/ccBvEo45.s:294    .text.move:0000000000000000 $t
     /tmp/ccBvEo45.s:299    .text.move:0000000000000000 move
     /tmp/ccBvEo45.s:560    .text.move:00000000000001b0 $d
     /tmp/ccBvEo45.s:578    .text.stateMachine:0000000000000000 $t
     /tmp/ccBvEo45.s:583    .text.stateMachine:0000000000000000 stateMachine
     /tmp/ccBvEo45.s:658    .text.stateMachine:0000000000000060 $d
     /tmp/ccBvEo45.s:678    .text.stateMachine:0000000000000074 $t
     /tmp/ccBvEo45.s:799    .text.stateMachine:0000000000000158 $d
     /tmp/ccBvEo45.s:811    .text.absPerso:0000000000000000 $t
     /tmp/ccBvEo45.s:816    .text.absPerso:0000000000000000 absPerso
     /tmp/ccBvEo45.s:973    .bss.endOfMvt:0000000000000000 endOfMvt
     /tmp/ccBvEo45.s:914    .bss.val2:0000000000000000 val2
     /tmp/ccBvEo45.s:880    .data.val1:0000000000000000 val1
     /tmp/ccBvEo45.s:1001   .data.consignes:0000000000000000 consignes
     /tmp/ccBvEo45.s:855    .bss.errorSumGauche.7960:0000000000000000 $d
     /tmp/ccBvEo45.s:859    .bss.errorSumGauche.7960:0000000000000000 errorSumGauche.7960
     /tmp/ccBvEo45.s:862    .bss.isMvtDone.7956:0000000000000000 $d
     /tmp/ccBvEo45.s:866    .bss.isMvtDone.7956:0000000000000000 isMvtDone.7956
     /tmp/ccBvEo45.s:869    .bss.angleInit.7961:0000000000000000 $d
     /tmp/ccBvEo45.s:873    .bss.angleInit.7961:0000000000000000 angleInit.7961
     /tmp/ccBvEo45.s:876    .data.val1:0000000000000000 $d
     /tmp/ccBvEo45.s:896    .bss.oldErrorGauche.7959:0000000000000000 $d
     /tmp/ccBvEo45.s:900    .bss.oldErrorGauche.7959:0000000000000000 oldErrorGauche.7959
     /tmp/ccBvEo45.s:903    .data.firstLoopPass.7966:0000000000000000 $d
     /tmp/ccBvEo45.s:907    .data.firstLoopPass.7966:0000000000000000 firstLoopPass.7966
     /tmp/ccBvEo45.s:910    .bss.val2:0000000000000000 $d
     /tmp/ccBvEo45.s:917    .bss.positionYInit.7963:0000000000000000 $d
     /tmp/ccBvEo45.s:921    .bss.positionYInit.7963:0000000000000000 positionYInit.7963
     /tmp/ccBvEo45.s:924    .data.firstLoopPass.7943:0000000000000000 $d
     /tmp/ccBvEo45.s:928    .data.firstLoopPass.7943:0000000000000000 firstLoopPass.7943
     /tmp/ccBvEo45.s:931    .bss.distanceTarget.7965:0000000000000000 $d
     /tmp/ccBvEo45.s:935    .bss.distanceTarget.7965:0000000000000000 distanceTarget.7965
     /tmp/ccBvEo45.s:938    .rodata.str1.4:0000000000000000 $d
     /tmp/ccBvEo45.s:948    .bss.positionXInit.7962:0000000000000000 $d
     /tmp/ccBvEo45.s:952    .bss.positionXInit.7962:0000000000000000 positionXInit.7962
     /tmp/ccBvEo45.s:955    .bss.oldErrorDroite.7957:0000000000000000 $d
     /tmp/ccBvEo45.s:959    .bss.oldErrorDroite.7957:0000000000000000 oldErrorDroite.7957
     /tmp/ccBvEo45.s:962    .bss.distanceTravelled.7964:0000000000000000 $d
     /tmp/ccBvEo45.s:966    .bss.distanceTravelled.7964:0000000000000000 distanceTravelled.7964
     /tmp/ccBvEo45.s:969    .bss.endOfMvt:0000000000000000 $d
     /tmp/ccBvEo45.s:976    .bss.state.7923:0000000000000000 $d
     /tmp/ccBvEo45.s:980    .bss.state.7923:0000000000000000 state.7923
     /tmp/ccBvEo45.s:983    .bss.angleInit.7942:0000000000000000 $d
     /tmp/ccBvEo45.s:987    .bss.angleInit.7942:0000000000000000 angleInit.7942
     /tmp/ccBvEo45.s:990    .bss.errorSumDroite.7958:0000000000000000 $d
     /tmp/ccBvEo45.s:994    .bss.errorSumDroite.7958:0000000000000000 errorSumDroite.7958
     /tmp/ccBvEo45.s:997    .data.consignes:0000000000000000 $d
                     .debug_frame:0000000000000010 $d

ARM GAS  /tmp/ccBvEo45.s 			page 24


UNDEFINED SYMBOLS
__aeabi_f2d
__aeabi_ddiv
__aeabi_dadd
__aeabi_dmul
cos
sin
__aeabi_dcmpgt
__aeabi_dcmplt
__aeabi_dsub
__aeabi_i2d
__aeabi_d2iz
sqrt
__aeabi_d2uiz
HAL_UART_Transmit
HAL_Delay
